target datalayout = "e-m:e-p270:32:32-p271:32:32-p272:64:64-i64:64-i128:128-f80:128-n8:16:32:64-S128"
target triple = "x86_64-pc-linux-gnu"

%"class.std::shared_ptr" = type { %"class.std::__shared_ptr" }
%"class.std::__shared_ptr" = type { ptr, %"class.std::__shared_count" }
%"class.std::__shared_count" = type { ptr }
%"struct.open_spiel::bargaining::Instance" = type { %"class.std::vector", %"class.std::vector.9" }
%"class.std::vector" = type { %"struct.std::_Vector_base" }
%"struct.std::_Vector_base" = type { %"struct.std::_Vector_base<std::vector<int>, std::allocator<std::vector<int>>>::_Vector_impl" }
%"struct.std::_Vector_base<std::vector<int>, std::allocator<std::vector<int>>>::_Vector_impl" = type { %"struct.std::_Vector_base<std::vector<int>, std::allocator<std::vector<int>>>::_Vector_impl_data" }
%"struct.std::_Vector_base<std::vector<int>, std::allocator<std::vector<int>>>::_Vector_impl_data" = type { ptr, ptr, ptr }
%"class.std::vector.9" = type { %"struct.std::_Vector_base.10" }
%"struct.std::_Vector_base.10" = type { %"struct.std::_Vector_base<int, std::allocator<int>>::_Vector_impl" }
%"struct.std::_Vector_base<int, std::allocator<int>>::_Vector_impl" = type { %"struct.std::_Vector_base<int, std::allocator<int>>::_Vector_impl_data" }
%"struct.std::_Vector_base<int, std::allocator<int>>::_Vector_impl_data" = type { ptr, ptr, ptr }
%"struct.open_spiel::bargaining::Offer" = type { %"class.std::vector.9" }
%"class.open_spiel::bargaining::BargainingState" = type <{ %"class.open_spiel::State.base", i32, i8, [7 x i8], ptr, %"struct.open_spiel::bargaining::Instance", %"class.std::vector.19", i32, [4 x i8], double, i8, [7 x i8] }>
%"class.open_spiel::State.base" = type <{ ptr, %"class.std::shared_ptr", i32, i32, %"class.std::vector.14", i32 }>
%"class.std::vector.14" = type { %"struct.std::_Vector_base.15" }
%"struct.std::_Vector_base.15" = type { %"struct.std::_Vector_base<open_spiel::State::PlayerAction, std::allocator<open_spiel::State::PlayerAction>>::_Vector_impl" }
%"struct.std::_Vector_base<open_spiel::State::PlayerAction, std::allocator<open_spiel::State::PlayerAction>>::_Vector_impl" = type { %"struct.std::_Vector_base<open_spiel::State::PlayerAction, std::allocator<open_spiel::State::PlayerAction>>::_Vector_impl_data" }
%"struct.std::_Vector_base<open_spiel::State::PlayerAction, std::allocator<open_spiel::State::PlayerAction>>::_Vector_impl_data" = type { ptr, ptr, ptr }
%"class.std::vector.19" = type { %"struct.std::_Vector_base.20" }
%"struct.std::_Vector_base.20" = type { %"struct.std::_Vector_base<open_spiel::bargaining::Offer, std::allocator<open_spiel::bargaining::Offer>>::_Vector_impl" }
%"struct.std::_Vector_base<open_spiel::bargaining::Offer, std::allocator<open_spiel::bargaining::Offer>>::_Vector_impl" = type { %"struct.std::_Vector_base<open_spiel::bargaining::Offer, std::allocator<open_spiel::bargaining::Offer>>::_Vector_impl_data" }
%"struct.std::_Vector_base<open_spiel::bargaining::Offer, std::allocator<open_spiel::bargaining::Offer>>::_Vector_impl_data" = type { ptr, ptr, ptr }

; Function Attrs: mustprogress nounwind uwtable
define linkonce_odr noundef nonnull align 4 dereferenceable(4) ptr @_ZNKSt6vectorIiSaIiEEixEm(ptr noundef nonnull align 8 dereferenceable(24) %0, i64 noundef %1) #5 comdat align 2 {
  %3 = alloca ptr, align 8
  %4 = alloca i64, align 8
  store ptr %0, ptr %3, align 8
  store i64 %1, ptr %4, align 8
  %5 = load ptr, ptr %3, align 8
  %6 = getelementptr inbounds nuw %"struct.std::_Vector_base.10", ptr %5, i32 0, i32 0
  %7 = getelementptr inbounds nuw %"struct.std::_Vector_base<int, std::allocator<int>>::_Vector_impl_data", ptr %6, i32 0, i32 0
  %8 = load ptr, ptr %7, align 8
  %9 = load i64, ptr %4, align 8
  %10 = getelementptr inbounds i32, ptr %8, i64 %9
  ret ptr %10
}

; Function Attrs: mustprogress nounwind uwtable
define noundef zeroext i1 @_ZNK10open_spiel10bargaining15BargainingState12IsLegalOfferERKNS0_5OfferE(ptr noundef nonnull align 8 dereferenceable(169) %0, ptr noundef nonnull align 8 dereferenceable(24) %1) #5 align 2 {
  %3 = alloca i1, align 1
  %4 = alloca ptr, align 8
  %5 = alloca ptr, align 8
  %6 = alloca i32, align 4
  store ptr %0, ptr %4, align 8
  store ptr %1, ptr %5, align 8
  %7 = load ptr, ptr %4, align 8
  store i32 0, ptr %6, align 4
  br label %8

8:                                                ; preds = %27, %2
  %9 = load i32, ptr %6, align 4
  %10 = icmp slt i32 %9, 3
  br i1 %10, label %11, label %30

11:                                               ; preds = %8
  %12 = load ptr, ptr %5, align 8
  %13 = getelementptr inbounds nuw %"struct.open_spiel::bargaining::Offer", ptr %12, i32 0, i32 0
  %14 = load i32, ptr %6, align 4
  %15 = sext i32 %14 to i64
  %16 = call noundef nonnull align 4 dereferenceable(4) ptr @_ZNKSt6vectorIiSaIiEEixEm(ptr noundef nonnull align 8 dereferenceable(24) %13, i64 noundef %15) #3
  %17 = load i32, ptr %16, align 4
  %18 = getelementptr inbounds nuw %"class.open_spiel::bargaining::BargainingState", ptr %7, i32 0, i32 5
  %19 = getelementptr inbounds nuw %"struct.open_spiel::bargaining::Instance", ptr %18, i32 0, i32 1
  %20 = load i32, ptr %6, align 4
  %21 = sext i32 %20 to i64
  %22 = call noundef nonnull align 4 dereferenceable(4) ptr @_ZNKSt6vectorIiSaIiEEixEm(ptr noundef nonnull align 8 dereferenceable(24) %19, i64 noundef %21) #3
  %23 = load i32, ptr %22, align 4
  %24 = icmp sgt i32 %17, %23
  br i1 %24, label %25, label %26

25:                                               ; preds = %11
  store i1 false, ptr %3, align 1
  br label %31

26:                                               ; preds = %11
  br label %27

27:                                               ; preds = %26
  %28 = load i32, ptr %6, align 4
  %29 = add nsw i32 %28, 1
  store i32 %29, ptr %6, align 4
  br label %8, !llvm.loop !22

30:                                               ; preds = %8
  store i1 true, ptr %3, align 1
  br label %31

31:                                               ; preds = %30, %25
  %32 = load i1, ptr %3, align 1
  ret i1 %32
}