; Function Attrs: mustprogress nofree norecurse nosync nounwind willreturn memory(read, inaccessiblemem: none) uwtable
define noundef zeroext i1 @_ZNK10open_spiel10bargaining15BargainingState12IsLegalOfferERKNS0_5OfferE(ptr nocapture noundef nonnull readonly align 8 dereferenceable(169) %0, ptr nocapture noundef nonnull readonly align 8 dereferenceable(24) %1) local_unnamed_addr #5 align 2 {
  %3 = load ptr, ptr %1, align 8
  %4 = getelementptr inbounds i8, ptr %0, i64 104
  %5 = load ptr, ptr %4, align 8
  br label %6

6:                                                ; preds = %6, %2
  %indvars.iv = phi i64 [ 0, %2 ], [ %indvars.iv.next, %6 ]
  %7 = getelementptr inbounds i32, ptr %3, i64 %indvars.iv
  %8 = load i32, ptr %7, align 4
  %9 = getelementptr inbounds i32, ptr %5, i64 %indvars.iv
  %10 = load i32, ptr %9, align 4
  %.not = icmp sle i32 %8, %10
  %indvars.iv.next = add nuw nsw i64 %indvars.iv, 1
  %exitcond = icmp ne i64 %indvars.iv.next, 3
  %or.cond.not = select i1 %.not, i1 %exitcond, i1 false
  br i1 %or.cond.not, label %6, label %11, !llvm.loop !148

11:                                               ; preds = %6
  ret i1 %.not
}